; Function Attrs: mustprogress nofree norecurse nosync nounwind willreturn memory(argmem: write) uwtable
define internal noundef zeroext i1 @"_ZNSt17_Function_handlerIFvvEZN8facebook6hermes7tracing24makeTracingHermesRuntimeESt10unique_ptrINS2_13HermesRuntimeESt14default_deleteIS5_EERKN6hermes2vm13RuntimeConfigES4_IN4llvh11raw_ostreamES6_ISF_EEbE3$_1E10_M_managerERSt9_Any_dataRKSK_St18_Manager_operation"(ptr nocapture noundef nonnull writeonly align 8 dereferenceable(16) %__dest, ptr noundef nonnull align 8 dereferenceable(16) %__source, i32 noundef %__op) #21 align 2 personality ptr @__gxx_personality_v0 {
entry:
  switch i32 %__op, label %sw.epilog [
    i32 0, label %sw.epilog.sink.split
    i32 1, label %sw.bb1
  ]

sw.bb1:                                           ; preds = %entry
  br label %sw.epilog.sink.split

sw.epilog.sink.split:                             ; preds = %entry, %sw.bb1
  %__source.sink = phi ptr [ %__source, %sw.bb1 ], [ @"_ZTIZN8facebook6hermes7tracing24makeTracingHermesRuntimeESt10unique_ptrINS0_13HermesRuntimeESt14default_deleteIS3_EERKN6hermes2vm13RuntimeConfigES2_IN4llvh11raw_ostreamES4_ISD_EEbE3$_1", %entry ]
  store ptr %__source.sink, ptr %__dest, align 8
  br label %sw.epilog

sw.epilog:                                        ; preds = %sw.epilog.sink.split, %entry
  ret i1 false
}